target datalayout = "e-m:e-p270:32:32-p271:32:32-p272:64:64-i64:64-i128:128-f80:128-n8:16:32:64-S128"
target triple = "x86_64-pc-linux-gnu"

%struct.redisServer = type { i32, i64, ptr, ptr, ptr, i32, i32, i32, i32, i32, ptr, ptr, ptr, ptr, ptr, i32, i32, i32, i32, i64, i32, i32, i32, i32, ptr, i32, i32, [41 x i8], i32, i64, i32, i32, i32, ptr, ptr, i32, i32, i64, ptr, ptr, ptr, ptr, [2 x i32], i32, i32, i32, i32, i32, i32, [16 x ptr], i32, ptr, ptr, i32, [8 x %struct.connListener], i32, %struct.connListener, ptr, ptr, ptr, ptr, ptr, ptr, ptr, ptr, ptr, ptr, i32, ptr, i32, ptr, [3 x %struct.pause_event], [256 x i8], ptr, i64, i32, i32, [128 x i32], i32, i32, i64, i32, i32, i32, i32, i32, i64, i64, i64, i64, i64, i64, i64, i64, i64, i64, double, i64, i64, i64, i64, i64, i64, i64, i64, i64, i64, i64, i64, i64, i64, i64, i64, i64, i64, i64, i64, i64, double, i64, i64, i64, i64, i64, ptr, i64, i64, i64, %struct.malloc_stats, i64, i64, i64, i64, i64, i64, i64, i64, i64, i64, i64, i64, double, [4 x i64], i64, i64, i64, i64, [128 x i64], [128 x i64], i64, i64, [7 x %struct.anon], i64, i64, i64, i64, i64, i64, [4 x %struct.durationStats], i32, i32, i32, i32, i32, i32, i32, i32, i32, i32, i32, i32, i64, i32, i32, i32, i32, i64, i64, i32, i32, i32, i32, i32, ptr, [3 x %struct.clientBufferLimitsConfig], i32, i32, i32, ptr, i32, i32, i32, i32, i32, i32, ptr, ptr, i32, i32, i64, i64, i64, i64, i64, i32, i32, ptr, i32, i32, i64, i64, i64, i64, i64, i32, i32, i64, i32, i32, i32, i32, i32, i32, i32, i32, ptr, i32, i64, i64, i64, i64, i32, ptr, i32, ptr, i32, i32, i32, i64, i64, i64, i64, i32, i32, i32, i32, i32, i32, ptr, i32, i32, ptr, i32, i32, i32, [2 x i32], i32, %struct.redisOpArray, i32, ptr, i32, ptr, i32, i32, i32, i32, i32, i32, i32, [41 x i8], [41 x i8], i64, i64, i64, i64, i32, i32, ptr, i64, i64, %struct.replDataBuf, i64, i64, i32, i32, i32, i32, i32, i32, i32, i32, i32, i64, ptr, i64, ptr, ptr, ptr, i32, i32, ptr, ptr, i32, i32, i32, i64, i64, i64, i64, ptr, ptr, i32, ptr, i64, i32, i32, i32, i64, i32, i32, i32, i32, ptr, i32, i32, [41 x i8], i64, i32, ptr, i32, i32, i64, i64, i32, i32, i32, i32, i32, i64, [3 x i32], i32, i32, i32, [10 x i32], ptr, ptr, i32, i64, ptr, ptr, i32, i32, i32, i32, i64, i64, i64, i64, i64, i64, i64, i64, i64, i64, i32, i32, i64, i64, i32, i64, i64, i64, i64, i64, ptr, ptr, i32, ptr, i32, i32, i32, i32, i64, i64, ptr, ptr, i32, i32, i32, i32, i32, ptr, ptr, ptr, i32, i32, i32, i32, i32, i32, i32, i64, i32, i32, i64, i32, i32, i32, i32, i32, i32, i32, i64, ptr, ptr, i64, ptr, i32, %struct.aclInfo, i32, i64, i32, i32, i32, %struct.redisTLSContextConfig, ptr, ptr, ptr, ptr, ptr, i64, i32, ptr, i32, i32, i32, i64, i32, ptr }
%struct.connListener = type { [16 x i32], i32, ptr, i32, i32, ptr, ptr }
%struct.pause_event = type { i32, i64 }
%struct.malloc_stats = type { i64, i64, i64, i64, i64, i64, i64, i64, i64, i64, i64 }
%struct.anon = type { i64, i64, [16 x i64], i32 }
%struct.durationStats = type { i64, i64, i64 }
%struct.clientBufferLimitsConfig = type { i64, i64, i64 }
%struct.redisOpArray = type { ptr, i32, i32 }
%struct.replDataBuf = type { ptr, i64, i64, i64, i64 }
%struct.aclInfo = type { i64, i64, i64, i64 }
%struct.redisTLSContextConfig = type { ptr, ptr, ptr, ptr, ptr, ptr, ptr, ptr, ptr, ptr, ptr, ptr, i32, i32, i32, i32 }
%struct.sentinelRedisInstance = type { i32, ptr, ptr, i64, ptr, ptr, i64, i64, i64, i64, i64, i64, i64, i64, i64, ptr, i32, i64, i64, ptr, ptr, i32, i32, ptr, ptr, i64, i32, i32, i64, ptr, ptr, i32, i32, i64, ptr, i64, i64, i32, i64, i64, i64, i64, ptr, ptr, ptr, ptr }
%struct.instanceLink = type { i32, i32, i32, ptr, ptr, i64, i64, i64, i64, i64, i64, i64, i64 }
%struct.redisAsyncContext = type { %struct.redisContext, i32, ptr, ptr, ptr, %struct.anon.2, ptr, ptr, ptr, %struct.redisCallbackList, ptr, i64, %struct.anon.3, ptr }
%struct.redisContext = type { ptr, i32, [128 x i8], i32, i32, ptr, ptr, i32, ptr, ptr, %struct.anon.0, %struct.anon.1, ptr, i64, ptr, ptr, ptr, ptr }
%struct.anon.0 = type { ptr, ptr, i32 }
%struct.anon.1 = type { ptr }
%struct.anon.2 = type { ptr, ptr, ptr, ptr, ptr, ptr, ptr }
%struct.redisCallbackList = type { ptr, ptr }
%struct.anon.3 = type { %struct.redisCallbackList, ptr, ptr, i32 }
%struct.redisReply = type { i32, i64, double, i64, ptr, [4 x i8], i64, ptr }

@server = external global %struct.redisServer, align 8
@.str.354 = private unnamed_addr constant [2 x i8] c"*\00", align 1
@.str.409 = private unnamed_addr constant [21 x i8] c"%s voted for %s %llu\00", align 1

; Function Attrs: nounwind uwtable
define dso_local void @sentinelReceiveIsMasterDownReply(ptr noundef %0, ptr noundef %1, ptr noundef %2) #0 {
  %4 = alloca ptr, align 8
  %5 = alloca ptr, align 8
  %6 = alloca ptr, align 8
  %7 = alloca ptr, align 8
  %8 = alloca ptr, align 8
  %9 = alloca ptr, align 8
  %10 = alloca i32, align 4
  store ptr %0, ptr %4, align 8, !tbaa !145
  store ptr %1, ptr %5, align 8, !tbaa !10
  store ptr %2, ptr %6, align 8, !tbaa !10
  call void @llvm.lifetime.start.p0(i64 8, ptr %7) #16
  %11 = load ptr, ptr %6, align 8, !tbaa !10
  store ptr %11, ptr %7, align 8, !tbaa !11
  call void @llvm.lifetime.start.p0(i64 8, ptr %8) #16
  %12 = load ptr, ptr %4, align 8, !tbaa !145
  %13 = getelementptr inbounds nuw %struct.redisAsyncContext, ptr %12, i32 0, i32 3
  %14 = load ptr, ptr %13, align 8, !tbaa !146
  store ptr %14, ptr %8, align 8, !tbaa !129
  call void @llvm.lifetime.start.p0(i64 8, ptr %9) #16
  %15 = load ptr, ptr %5, align 8, !tbaa !10
  %16 = icmp ne ptr %15, null
  br i1 %16, label %17, label %20

17:                                               ; preds = %3
  %18 = load ptr, ptr %8, align 8, !tbaa !129
  %19 = icmp ne ptr %18, null
  br i1 %19, label %21, label %20

20:                                               ; preds = %17, %3
  store i32 1, ptr %10, align 4
  br label %157

21:                                               ; preds = %17
  %22 = load ptr, ptr %8, align 8, !tbaa !129
  %23 = getelementptr inbounds nuw %struct.instanceLink, ptr %22, i32 0, i32 2
  %24 = load i32, ptr %23, align 8, !tbaa !134
  %25 = add nsw i32 %24, -1
  store i32 %25, ptr %23, align 8, !tbaa !134
  %26 = load ptr, ptr %5, align 8, !tbaa !10
  store ptr %26, ptr %9, align 8, !tbaa !262
  %27 = load ptr, ptr %9, align 8, !tbaa !262
  %28 = getelementptr inbounds nuw %struct.redisReply, ptr %27, i32 0, i32 0
  %29 = load i32, ptr %28, align 8, !tbaa !264
  %30 = icmp eq i32 %29, 2
  br i1 %30, label %31, label %156

31:                                               ; preds = %21
  %32 = load ptr, ptr %9, align 8, !tbaa !262
  %33 = getelementptr inbounds nuw %struct.redisReply, ptr %32, i32 0, i32 6
  %34 = load i64, ptr %33, align 8, !tbaa !267
  %35 = icmp eq i64 %34, 3
  br i1 %35, label %36, label %156

36:                                               ; preds = %31
  %37 = load ptr, ptr %9, align 8, !tbaa !262
  %38 = getelementptr inbounds nuw %struct.redisReply, ptr %37, i32 0, i32 7
  %39 = load ptr, ptr %38, align 8, !tbaa !268
  %40 = getelementptr inbounds ptr, ptr %39, i64 0
  %41 = load ptr, ptr %40, align 8, !tbaa !262
  %42 = getelementptr inbounds nuw %struct.redisReply, ptr %41, i32 0, i32 0
  %43 = load i32, ptr %42, align 8, !tbaa !264
  %44 = icmp eq i32 %43, 3
  br i1 %44, label %45, label %156

45:                                               ; preds = %36
  %46 = load ptr, ptr %9, align 8, !tbaa !262
  %47 = getelementptr inbounds nuw %struct.redisReply, ptr %46, i32 0, i32 7
  %48 = load ptr, ptr %47, align 8, !tbaa !268
  %49 = getelementptr inbounds ptr, ptr %48, i64 1
  %50 = load ptr, ptr %49, align 8, !tbaa !262
  %51 = getelementptr inbounds nuw %struct.redisReply, ptr %50, i32 0, i32 0
  %52 = load i32, ptr %51, align 8, !tbaa !264
  %53 = icmp eq i32 %52, 1
  br i1 %53, label %54, label %156

54:                                               ; preds = %45
  %55 = load ptr, ptr %9, align 8, !tbaa !262
  %56 = getelementptr inbounds nuw %struct.redisReply, ptr %55, i32 0, i32 7
  %57 = load ptr, ptr %56, align 8, !tbaa !268
  %58 = getelementptr inbounds ptr, ptr %57, i64 2
  %59 = load ptr, ptr %58, align 8, !tbaa !262
  %60 = getelementptr inbounds nuw %struct.redisReply, ptr %59, i32 0, i32 0
  %61 = load i32, ptr %60, align 8, !tbaa !264
  %62 = icmp eq i32 %61, 3
  br i1 %62, label %63, label %156

63:                                               ; preds = %54
  %64 = call i64 @mstime()
  %65 = load ptr, ptr %7, align 8, !tbaa !11
  %66 = getelementptr inbounds nuw %struct.sentinelRedisInstance, ptr %65, i32 0, i32 8
  store i64 %64, ptr %66, align 8, !tbaa !177
  %67 = load ptr, ptr %9, align 8, !tbaa !262
  %68 = getelementptr inbounds nuw %struct.redisReply, ptr %67, i32 0, i32 7
  %69 = load ptr, ptr %68, align 8, !tbaa !268
  %70 = getelementptr inbounds ptr, ptr %69, i64 0
  %71 = load ptr, ptr %70, align 8, !tbaa !262
  %72 = getelementptr inbounds nuw %struct.redisReply, ptr %71, i32 0, i32 1
  %73 = load i64, ptr %72, align 8, !tbaa !320
  %74 = icmp eq i64 %73, 1
  br i1 %74, label %75, label %80

75:                                               ; preds = %63
  %76 = load ptr, ptr %7, align 8, !tbaa !11
  %77 = getelementptr inbounds nuw %struct.sentinelRedisInstance, ptr %76, i32 0, i32 0
  %78 = load i32, ptr %77, align 8, !tbaa !34
  %79 = or i32 %78, 32
  store i32 %79, ptr %77, align 8, !tbaa !34
  br label %85

80:                                               ; preds = %63
  %81 = load ptr, ptr %7, align 8, !tbaa !11
  %82 = getelementptr inbounds nuw %struct.sentinelRedisInstance, ptr %81, i32 0, i32 0
  %83 = load i32, ptr %82, align 8, !tbaa !34
  %84 = and i32 %83, -33
  store i32 %84, ptr %82, align 8, !tbaa !34
  br label %85

85:                                               ; preds = %80, %75
  %86 = load ptr, ptr %9, align 8, !tbaa !262
  %87 = getelementptr inbounds nuw %struct.redisReply, ptr %86, i32 0, i32 7
  %88 = load ptr, ptr %87, align 8, !tbaa !268
  %89 = getelementptr inbounds ptr, ptr %88, i64 1
  %90 = load ptr, ptr %89, align 8, !tbaa !262
  %91 = getelementptr inbounds nuw %struct.redisReply, ptr %90, i32 0, i32 4
  %92 = load ptr, ptr %91, align 8, !tbaa !269
  %93 = call i32 @strcmp(ptr noundef %92, ptr noundef @.str.354) #19
  %94 = icmp ne i32 %93, 0
  br i1 %94, label %95, label %155

95:                                               ; preds = %85
  %96 = load ptr, ptr %7, align 8, !tbaa !11
  %97 = getelementptr inbounds nuw %struct.sentinelRedisInstance, ptr %96, i32 0, i32 34
  %98 = load ptr, ptr %97, align 8, !tbaa !28
  call void @sdsfree(ptr noundef %98)
  %99 = load ptr, ptr %7, align 8, !tbaa !11
  %100 = getelementptr inbounds nuw %struct.sentinelRedisInstance, ptr %99, i32 0, i32 35
  %101 = load i64, ptr %100, align 8, !tbaa !191
  %102 = load ptr, ptr %9, align 8, !tbaa !262
  %103 = getelementptr inbounds nuw %struct.redisReply, ptr %102, i32 0, i32 7
  %104 = load ptr, ptr %103, align 8, !tbaa !268
  %105 = getelementptr inbounds ptr, ptr %104, i64 2
  %106 = load ptr, ptr %105, align 8, !tbaa !262
  %107 = getelementptr inbounds nuw %struct.redisReply, ptr %106, i32 0, i32 1
  %108 = load i64, ptr %107, align 8, !tbaa !320
  %109 = icmp ne i64 %101, %108
  br i1 %109, label %110, label %135

110:                                              ; preds = %95
  br label %111

111:                                              ; preds = %110
  %112 = load i32, ptr getelementptr inbounds nuw (%struct.redisServer, ptr @server, i32 0, i32 159), align 8, !tbaa !81
  %113 = icmp slt i32 2, %112
  br i1 %113, label %114, label %115

114:                                              ; preds = %111
  br label %134

115:                                              ; preds = %111
  %116 = load ptr, ptr %7, align 8, !tbaa !11
  %117 = getelementptr inbounds nuw %struct.sentinelRedisInstance, ptr %116, i32 0, i32 1
  %118 = load ptr, ptr %117, align 8, !tbaa !23
  %119 = load ptr, ptr %9, align 8, !tbaa !262
  %120 = getelementptr inbounds nuw %struct.redisReply, ptr %119, i32 0, i32 7
  %121 = load ptr, ptr %120, align 8, !tbaa !268
  %122 = getelementptr inbounds ptr, ptr %121, i64 1
  %123 = load ptr, ptr %122, align 8, !tbaa !262
  %124 = getelementptr inbounds nuw %struct.redisReply, ptr %123, i32 0, i32 4
  %125 = load ptr, ptr %124, align 8, !tbaa !269
  %126 = load ptr, ptr %9, align 8, !tbaa !262
  %127 = getelementptr inbounds nuw %struct.redisReply, ptr %126, i32 0, i32 7
  %128 = load ptr, ptr %127, align 8, !tbaa !268
  %129 = getelementptr inbounds ptr, ptr %128, i64 2
  %130 = load ptr, ptr %129, align 8, !tbaa !262
  %131 = getelementptr inbounds nuw %struct.redisReply, ptr %130, i32 0, i32 1
  %132 = load i64, ptr %131, align 8, !tbaa !320
  call void (i32, ptr, ...) @_serverLog(i32 noundef 2, ptr noundef @.str.409, ptr noundef %118, ptr noundef %125, i64 noundef %132)
  br label %133

133:                                              ; preds = %115
  br label %134

134:                                              ; preds = %133, %114
  br label %135

135:                                              ; preds = %134, %95
  %136 = load ptr, ptr %9, align 8, !tbaa !262
  %137 = getelementptr inbounds nuw %struct.redisReply, ptr %136, i32 0, i32 7
  %138 = load ptr, ptr %137, align 8, !tbaa !268
  %139 = getelementptr inbounds ptr, ptr %138, i64 1
  %140 = load ptr, ptr %139, align 8, !tbaa !262
  %141 = getelementptr inbounds nuw %struct.redisReply, ptr %140, i32 0, i32 4
  %142 = load ptr, ptr %141, align 8, !tbaa !269
  %143 = call ptr @sdsnew(ptr noundef %142)
  %144 = load ptr, ptr %7, align 8, !tbaa !11
  %145 = getelementptr inbounds nuw %struct.sentinelRedisInstance, ptr %144, i32 0, i32 34
  store ptr %143, ptr %145, align 8, !tbaa !28
  %146 = load ptr, ptr %9, align 8, !tbaa !262
  %147 = getelementptr inbounds nuw %struct.redisReply, ptr %146, i32 0, i32 7
  %148 = load ptr, ptr %147, align 8, !tbaa !268
  %149 = getelementptr inbounds ptr, ptr %148, i64 2
  %150 = load ptr, ptr %149, align 8, !tbaa !262
  %151 = getelementptr inbounds nuw %struct.redisReply, ptr %150, i32 0, i32 1
  %152 = load i64, ptr %151, align 8, !tbaa !320
  %153 = load ptr, ptr %7, align 8, !tbaa !11
  %154 = getelementptr inbounds nuw %struct.sentinelRedisInstance, ptr %153, i32 0, i32 35
  store i64 %152, ptr %154, align 8, !tbaa !191
  br label %155

155:                                              ; preds = %135, %85
  br label %156

156:                                              ; preds = %155, %54, %45, %36, %31, %21
  store i32 0, ptr %10, align 4
  br label %157

157:                                              ; preds = %156, %20
  call void @llvm.lifetime.end.p0(i64 8, ptr %9) #16
  call void @llvm.lifetime.end.p0(i64 8, ptr %8) #16
  call void @llvm.lifetime.end.p0(i64 8, ptr %7) #16
  %158 = load i32, ptr %10, align 4
  switch i32 %158, label %160 [
    i32 0, label %159
    i32 1, label %159
  ]

159:                                              ; preds = %157, %157
  ret void

160:                                              ; preds = %157
  unreachable
}