; Function Attrs: nounwind uwtable
define dso_local void @sentinelReceiveIsMasterDownReply(ptr noundef readonly captures(none) %0, ptr noundef readonly captures(address_is_null) %1, ptr noundef captures(none) %2) #0 {
  %4 = getelementptr inbounds nuw i8, ptr %0, i64 288
  %5 = load ptr, ptr %4, align 8, !tbaa !126
  %6 = icmp ne ptr %1, null
  %7 = icmp ne ptr %5, null
  %or.cond = select i1 %6, i1 %7, i1 false
  br i1 %or.cond, label %8, label %82

8:                                                ; preds = %3
  %9 = getelementptr inbounds nuw i8, ptr %5, i64 8
  %10 = load i32, ptr %9, align 8, !tbaa !118
  %11 = add nsw i32 %10, -1
  store i32 %11, ptr %9, align 8, !tbaa !118
  %12 = load i32, ptr %1, align 8, !tbaa !228
  %13 = icmp eq i32 %12, 2
  br i1 %13, label %14, label %82

14:                                               ; preds = %8
  %15 = getelementptr inbounds nuw i8, ptr %1, i64 48
  %16 = load i64, ptr %15, align 8, !tbaa !231
  %17 = icmp eq i64 %16, 3
  br i1 %17, label %18, label %82

18:                                               ; preds = %14
  %19 = getelementptr inbounds nuw i8, ptr %1, i64 56
  %20 = load ptr, ptr %19, align 8, !tbaa !232
  %21 = load ptr, ptr %20, align 8, !tbaa !233
  %22 = load i32, ptr %21, align 8, !tbaa !228
  %23 = icmp eq i32 %22, 3
  br i1 %23, label %24, label %82

24:                                               ; preds = %18
  %25 = getelementptr inbounds nuw i8, ptr %20, i64 8
  %26 = load ptr, ptr %25, align 8, !tbaa !233
  %27 = load i32, ptr %26, align 8, !tbaa !228
  %28 = icmp eq i32 %27, 1
  br i1 %28, label %29, label %82

29:                                               ; preds = %24
  %30 = getelementptr inbounds nuw i8, ptr %20, i64 16
  %31 = load ptr, ptr %30, align 8, !tbaa !233
  %32 = load i32, ptr %31, align 8, !tbaa !228
  %33 = icmp eq i32 %32, 3
  br i1 %33, label %sub_0, label %82

sub_0:                                            ; preds = %29
  %34 = tail call i64 @mstime() #30
  %35 = getelementptr inbounds nuw i8, ptr %2, i64 64
  store i64 %34, ptr %35, align 8, !tbaa !153
  %36 = load ptr, ptr %19, align 8, !tbaa !232
  %37 = load ptr, ptr %36, align 8, !tbaa !233
  %38 = getelementptr inbounds nuw i8, ptr %37, i64 8
  %39 = load i64, ptr %38, align 8, !tbaa !286
  %40 = icmp eq i64 %39, 1
  %41 = load i32, ptr %2, align 8, !tbaa !34
  %42 = and i32 %41, -33
  %masksel = select i1 %40, i32 32, i32 0
  %storemerge = or disjoint i32 %42, %masksel
  store i32 %storemerge, ptr %2, align 8, !tbaa !34
  %43 = getelementptr inbounds nuw i8, ptr %36, i64 8
  %44 = load ptr, ptr %43, align 8, !tbaa !233
  %45 = getelementptr inbounds nuw i8, ptr %44, i64 32
  %46 = load ptr, ptr %45, align 8, !tbaa !235
  %47 = load i8, ptr %46, align 1
  %.not31 = icmp eq i8 %47, 42
  br i1 %.not31, label %.tail, label %.tail.thread

.tail:                                            ; preds = %sub_0
  %48 = getelementptr inbounds nuw i8, ptr %46, i64 1
  %49 = load i8, ptr %48, align 1
  %50 = icmp eq i8 %49, 0
  br i1 %50, label %82, label %.tail.thread

.tail.thread:                                     ; preds = %sub_0, %.tail
  %51 = getelementptr inbounds nuw i8, ptr %2, i64 248
  %52 = load ptr, ptr %51, align 8, !tbaa !25
  tail call void @sdsfree(ptr noundef %52) #30
  %53 = getelementptr inbounds nuw i8, ptr %2, i64 256
  %54 = load i64, ptr %53, align 8, !tbaa !197
  %55 = load ptr, ptr %19, align 8, !tbaa !232
  %56 = getelementptr inbounds nuw i8, ptr %55, i64 16
  %57 = load ptr, ptr %56, align 8, !tbaa !233
  %58 = getelementptr inbounds nuw i8, ptr %57, i64 8
  %59 = load i64, ptr %58, align 8, !tbaa !286
  %60 = icmp eq i64 %54, %59
  %61 = load i32, ptr getelementptr inbounds nuw (i8, ptr @server, i64 6288), align 8
  %62 = icmp sgt i32 %61, 2
  %or.cond3 = select i1 %60, i1 true, i1 %62
  br i1 %or.cond3, label %70, label %63

63:                                               ; preds = %.tail.thread
  %64 = getelementptr inbounds nuw i8, ptr %2, i64 8
  %65 = load ptr, ptr %64, align 8, !tbaa !20
  %66 = getelementptr inbounds nuw i8, ptr %55, i64 8
  %67 = load ptr, ptr %66, align 8, !tbaa !233
  %68 = getelementptr inbounds nuw i8, ptr %67, i64 32
  %69 = load ptr, ptr %68, align 8, !tbaa !235
  tail call void (i32, ptr, ...) @_serverLog(i32 noundef 2, ptr noundef nonnull @.str.409, ptr noundef %65, ptr noundef %69, i64 noundef %59) #30
  %.pre = load ptr, ptr %19, align 8, !tbaa !232
  br label %70

70:                                               ; preds = %63, %.tail.thread
  %71 = phi ptr [ %.pre, %63 ], [ %55, %.tail.thread ]
  %72 = getelementptr inbounds nuw i8, ptr %71, i64 8
  %73 = load ptr, ptr %72, align 8, !tbaa !233
  %74 = getelementptr inbounds nuw i8, ptr %73, i64 32
  %75 = load ptr, ptr %74, align 8, !tbaa !235
  %76 = tail call ptr @sdsnew(ptr noundef %75) #30
  store ptr %76, ptr %51, align 8, !tbaa !25
  %77 = load ptr, ptr %19, align 8, !tbaa !232
  %78 = getelementptr inbounds nuw i8, ptr %77, i64 16
  %79 = load ptr, ptr %78, align 8, !tbaa !233
  %80 = getelementptr inbounds nuw i8, ptr %79, i64 8
  %81 = load i64, ptr %80, align 8, !tbaa !286
  store i64 %81, ptr %53, align 8, !tbaa !197
  br label %82

82:                                               ; preds = %8, %14, %18, %24, %29, %70, %.tail, %3
  ret void
}